; Function Attrs: mustprogress uwtable
define hidden void @_ZN16fpa2bv_converter6mk_addEP9func_decljPKP4exprR7obj_refIS2_11ast_managerE(ptr noundef nonnull align 8 dereferenceable(496) %0, ptr noundef readonly captures(none) %1, i32 noundef %2, ptr noundef readonly captures(none) %3, ptr noundef nonnull align 8 dereferenceable(16) %4) local_unnamed_addr #3 align 2 personality ptr @__gxx_personality_v0 {
  %6 = alloca %class.obj_ref, align 8
  %7 = alloca %class.obj_ref, align 8
  %8 = alloca %class.obj_ref, align 8
  call void @llvm.lifetime.start.p0(i64 16, ptr nonnull %6) #23
  %9 = getelementptr inbounds nuw i8, ptr %0, i64 8
  %10 = load ptr, ptr %9, align 8, !tbaa !130
  %11 = getelementptr inbounds nuw i8, ptr %6, i64 8
  store ptr %10, ptr %11, align 8, !tbaa !6
  call void @llvm.lifetime.start.p0(i64 16, ptr nonnull %7) #23
  %12 = getelementptr inbounds nuw i8, ptr %7, i64 8
  store ptr %10, ptr %12, align 8, !tbaa !6
  call void @llvm.lifetime.start.p0(i64 16, ptr nonnull %8) #23
  %13 = getelementptr inbounds nuw i8, ptr %8, i64 8
  store ptr %10, ptr %13, align 8, !tbaa !6
  %14 = load ptr, ptr %3, align 8, !tbaa !122
  %15 = getelementptr inbounds nuw i8, ptr %14, i64 32
  %16 = load ptr, ptr %15, align 8, !tbaa !122
  %.not.i = icmp eq ptr %16, null
  br i1 %.not.i, label %20, label %_ZN11ast_manager7inc_refEP3ast.exit.i

_ZN11ast_manager7inc_refEP3ast.exit.i:            ; preds = %5
  %17 = getelementptr inbounds nuw i8, ptr %16, i64 8
  %18 = load i32, ptr %17, align 4, !tbaa !125
  %19 = add i32 %18, 1
  store i32 %19, ptr %17, align 4, !tbaa !125
  br label %20

20:                                               ; preds = %_ZN11ast_manager7inc_refEP3ast.exit.i, %5
  store ptr %16, ptr %6, align 8, !tbaa !164
  %21 = getelementptr inbounds nuw i8, ptr %3, i64 8
  %22 = load ptr, ptr %21, align 8, !tbaa !122
  %.not.i7 = icmp eq ptr %22, null
  br i1 %.not.i7, label %26, label %_ZN11ast_manager7inc_refEP3ast.exit.i8

_ZN11ast_manager7inc_refEP3ast.exit.i8:           ; preds = %20
  %23 = getelementptr inbounds nuw i8, ptr %22, i64 8
  %24 = load i32, ptr %23, align 4, !tbaa !125
  %25 = add i32 %24, 1
  store i32 %25, ptr %23, align 4, !tbaa !125
  br label %26

26:                                               ; preds = %20, %_ZN11ast_manager7inc_refEP3ast.exit.i8
  store ptr %22, ptr %7, align 8, !tbaa !164
  %27 = getelementptr inbounds nuw i8, ptr %3, i64 16
  %28 = load ptr, ptr %27, align 8, !tbaa !122
  %.not.i12 = icmp eq ptr %28, null
  br i1 %.not.i12, label %32, label %_ZN11ast_manager7inc_refEP3ast.exit.i13

_ZN11ast_manager7inc_refEP3ast.exit.i13:          ; preds = %26
  %29 = getelementptr inbounds nuw i8, ptr %28, i64 8
  %30 = load i32, ptr %29, align 4, !tbaa !125
  %31 = add i32 %30, 1
  store i32 %31, ptr %29, align 4, !tbaa !125
  br label %32

32:                                               ; preds = %26, %_ZN11ast_manager7inc_refEP3ast.exit.i13
  store ptr %28, ptr %8, align 8, !tbaa !164
  %33 = getelementptr inbounds nuw i8, ptr %1, i64 40
  %34 = load ptr, ptr %33, align 8, !tbaa !153
  invoke void @_ZN16fpa2bv_converter6mk_addEP4sortR7obj_refI4expr11ast_managerES6_S6_S6_(ptr noundef nonnull align 8 dereferenceable(496) %0, ptr noundef %34, ptr noundef nonnull align 8 dereferenceable(16) %6, ptr noundef nonnull align 8 dereferenceable(16) %7, ptr noundef nonnull align 8 dereferenceable(16) %8, ptr noundef nonnull align 8 dereferenceable(16) %4)
          to label %35 unwind label %63

35:                                               ; preds = %32
  br i1 %.not.i12, label %_ZN7obj_refI4expr11ast_managerED2Ev.exit, label %36

36:                                               ; preds = %35
  %37 = getelementptr inbounds nuw i8, ptr %28, i64 8
  %38 = load i32, ptr %37, align 4, !tbaa !125
  %39 = add i32 %38, -1
  store i32 %39, ptr %37, align 4, !tbaa !125
  %40 = icmp eq i32 %39, 0
  br i1 %40, label %41, label %_ZN7obj_refI4expr11ast_managerED2Ev.exit

41:                                               ; preds = %36
  invoke void @_ZN11ast_manager11delete_nodeEP3ast(ptr noundef nonnull align 8 dereferenceable(976) %10, ptr noundef nonnull %28)
          to label %_ZN7obj_refI4expr11ast_managerED2Ev.exit unwind label %42

42:                                               ; preds = %41
  %43 = landingpad { ptr, i32 }
          catch ptr null
  %44 = extractvalue { ptr, i32 } %43, 0
  tail call void @__clang_call_terminate(ptr %44) #24
  unreachable

_ZN7obj_refI4expr11ast_managerED2Ev.exit:         ; preds = %35, %36, %41
  call void @llvm.lifetime.end.p0(i64 16, ptr nonnull %8) #23
  br i1 %.not.i7, label %_ZN7obj_refI4expr11ast_managerED2Ev.exit18, label %45

45:                                               ; preds = %_ZN7obj_refI4expr11ast_managerED2Ev.exit
  %46 = getelementptr inbounds nuw i8, ptr %22, i64 8
  %47 = load i32, ptr %46, align 4, !tbaa !125
  %48 = add i32 %47, -1
  store i32 %48, ptr %46, align 4, !tbaa !125
  %49 = icmp eq i32 %48, 0
  br i1 %49, label %50, label %_ZN7obj_refI4expr11ast_managerED2Ev.exit18

50:                                               ; preds = %45
  invoke void @_ZN11ast_manager11delete_nodeEP3ast(ptr noundef nonnull align 8 dereferenceable(976) %10, ptr noundef nonnull %22)
          to label %_ZN7obj_refI4expr11ast_managerED2Ev.exit18 unwind label %51

51:                                               ; preds = %50
  %52 = landingpad { ptr, i32 }
          catch ptr null
  %53 = extractvalue { ptr, i32 } %52, 0
  tail call void @__clang_call_terminate(ptr %53) #24
  unreachable

_ZN7obj_refI4expr11ast_managerED2Ev.exit18:       ; preds = %_ZN7obj_refI4expr11ast_managerED2Ev.exit, %45, %50
  call void @llvm.lifetime.end.p0(i64 16, ptr nonnull %7) #23
  br i1 %.not.i, label %_ZN7obj_refI4expr11ast_managerED2Ev.exit20, label %54

54:                                               ; preds = %_ZN7obj_refI4expr11ast_managerED2Ev.exit18
  %55 = getelementptr inbounds nuw i8, ptr %16, i64 8
  %56 = load i32, ptr %55, align 4, !tbaa !125
  %57 = add i32 %56, -1
  store i32 %57, ptr %55, align 4, !tbaa !125
  %58 = icmp eq i32 %57, 0
  br i1 %58, label %59, label %_ZN7obj_refI4expr11ast_managerED2Ev.exit20

59:                                               ; preds = %54
  invoke void @_ZN11ast_manager11delete_nodeEP3ast(ptr noundef nonnull align 8 dereferenceable(976) %10, ptr noundef nonnull %16)
          to label %_ZN7obj_refI4expr11ast_managerED2Ev.exit20 unwind label %60

60:                                               ; preds = %59
  %61 = landingpad { ptr, i32 }
          catch ptr null
  %62 = extractvalue { ptr, i32 } %61, 0
  tail call void @__clang_call_terminate(ptr %62) #24
  unreachable

_ZN7obj_refI4expr11ast_managerED2Ev.exit20:       ; preds = %_ZN7obj_refI4expr11ast_managerED2Ev.exit18, %54, %59
  call void @llvm.lifetime.end.p0(i64 16, ptr nonnull %6) #23
  ret void

63:                                               ; preds = %32
  %64 = landingpad { ptr, i32 }
          cleanup
  call void @_ZN7obj_refI4expr11ast_managerED2Ev(ptr noundef nonnull align 8 dereferenceable(16) %8) #23
  call void @llvm.lifetime.end.p0(i64 16, ptr nonnull %8) #23
  call void @_ZN7obj_refI4expr11ast_managerED2Ev(ptr noundef nonnull align 8 dereferenceable(16) %7) #23
  call void @llvm.lifetime.end.p0(i64 16, ptr nonnull %7) #23
  call void @_ZN7obj_refI4expr11ast_managerED2Ev(ptr noundef nonnull align 8 dereferenceable(16) %6) #23
  call void @llvm.lifetime.end.p0(i64 16, ptr nonnull %6) #23
  resume { ptr, i32 } %64
}